target datalayout = "e-m:e-p270:32:32-p271:32:32-p272:64:64-i64:64-i128:128-f80:128-n8:16:32:64-S128"
target triple = "x86_64-pc-linux-gnu"

%struct.Abc_Ntk_t_ = type { i32, i32, ptr, ptr, ptr, ptr, ptr, ptr, ptr, ptr, ptr, ptr, ptr, [11 x i32], i32, i32, i32, i32, ptr, i32, ptr, ptr, i32, i32, i32, double, i32, %struct.Vec_Int_t_, ptr, ptr, ptr, ptr, ptr, float, i32, ptr, ptr, ptr, ptr, ptr, ptr, ptr, ptr, ptr, ptr, ptr, ptr, ptr, ptr, ptr, ptr, ptr, ptr, ptr, ptr, ptr }
%struct.Vec_Int_t_ = type { i32, i32, ptr }
%struct.Abc_Obj_t_ = type { ptr, ptr, i32, i32, %struct.Vec_Int_t_, %struct.Vec_Int_t_, %union.anon, %union.anon.0 }
%union.anon = type { ptr }
%union.anon.0 = type { ptr }
%struct.Vec_Ptr_t_ = type { i32, i32, ptr }

@stdout = external global ptr, align 8

; Function Attrs: nounwind uwtable
define internal ptr @Vec_PtrEntry(ptr noundef %0, i32 noundef %1) #0 {
  %3 = alloca ptr, align 8
  %4 = alloca i32, align 4
  store ptr %0, ptr %3, align 8
  store i32 %1, ptr %4, align 4
  %5 = load ptr, ptr %3, align 8
  %6 = getelementptr inbounds %struct.Vec_Ptr_t_, ptr %5, i32 0, i32 2
  %7 = load ptr, ptr %6, align 8
  %8 = load i32, ptr %4, align 4
  %9 = sext i32 %8 to i64
  %10 = getelementptr inbounds ptr, ptr %7, i64 %9
  %11 = load ptr, ptr %10, align 8
  ret ptr %11
}

; Function Attrs: nounwind uwtable
define internal i32 @Vec_PtrSize(ptr noundef %0) #0 {
  %2 = alloca ptr, align 8
  store ptr %0, ptr %2, align 8
  %3 = load ptr, ptr %2, align 8
  %4 = getelementptr inbounds %struct.Vec_Ptr_t_, ptr %3, i32 0, i32 1
  %5 = load i32, ptr %4, align 4
  ret i32 %5
}

; Function Attrs: nounwind uwtable
define internal void @Extra_ProgressBarUpdate(ptr noundef %0, i32 noundef %1, ptr noundef %2) #0 {
  %4 = alloca ptr, align 8
  %5 = alloca i32, align 4
  %6 = alloca ptr, align 8
  store ptr %0, ptr %4, align 8
  store i32 %1, ptr %5, align 4
  store ptr %2, ptr %6, align 8
  %7 = load ptr, ptr %4, align 8
  %8 = icmp ne ptr %7, null
  br i1 %8, label %9, label %15

9:                                                ; preds = %3
  %10 = load i32, ptr %5, align 4
  %11 = load ptr, ptr %4, align 8
  %12 = load i32, ptr %11, align 4
  %13 = icmp slt i32 %10, %12
  br i1 %13, label %14, label %15

14:                                               ; preds = %9
  br label %19

15:                                               ; preds = %9, %3
  %16 = load ptr, ptr %4, align 8
  %17 = load i32, ptr %5, align 4
  %18 = load ptr, ptr %6, align 8
  call void @Extra_ProgressBarUpdate_int(ptr noundef %16, i32 noundef %17, ptr noundef %18)
  br label %19

19:                                               ; preds = %15, %14
  ret void
}

; Function Attrs: nounwind uwtable
define internal ptr @Abc_NtkCo(ptr noundef %0, i32 noundef %1) #0 {
  %3 = alloca ptr, align 8
  %4 = alloca i32, align 4
  store ptr %0, ptr %3, align 8
  store i32 %1, ptr %4, align 4
  %5 = load ptr, ptr %3, align 8
  %6 = getelementptr inbounds %struct.Abc_Ntk_t_, ptr %5, i32 0, i32 9
  %7 = load ptr, ptr %6, align 8
  %8 = load i32, ptr %4, align 4
  %9 = call ptr @Vec_PtrEntry(ptr noundef %7, i32 noundef %8)
  ret ptr %9
}

; Function Attrs: nounwind uwtable
define internal i32 @Abc_NtkCoNum(ptr noundef %0) #0 {
  %2 = alloca ptr, align 8
  store ptr %0, ptr %2, align 8
  %3 = load ptr, ptr %2, align 8
  %4 = getelementptr inbounds %struct.Abc_Ntk_t_, ptr %3, i32 0, i32 9
  %5 = load ptr, ptr %4, align 8
  %6 = call i32 @Vec_PtrSize(ptr noundef %5)
  ret i32 %6
}

; Function Attrs: nounwind uwtable
define internal ptr @Abc_NtkCi(ptr noundef %0, i32 noundef %1) #0 {
  %3 = alloca ptr, align 8
  %4 = alloca i32, align 4
  store ptr %0, ptr %3, align 8
  store i32 %1, ptr %4, align 4
  %5 = load ptr, ptr %3, align 8
  %6 = getelementptr inbounds %struct.Abc_Ntk_t_, ptr %5, i32 0, i32 8
  %7 = load ptr, ptr %6, align 8
  %8 = load i32, ptr %4, align 4
  %9 = call ptr @Vec_PtrEntry(ptr noundef %7, i32 noundef %8)
  ret ptr %9
}

; Function Attrs: nounwind uwtable
define internal i32 @Abc_NtkCiNum(ptr noundef %0) #0 {
  %2 = alloca ptr, align 8
  store ptr %0, ptr %2, align 8
  %3 = load ptr, ptr %2, align 8
  %4 = getelementptr inbounds %struct.Abc_Ntk_t_, ptr %3, i32 0, i32 8
  %5 = load ptr, ptr %4, align 8
  %6 = call i32 @Vec_PtrSize(ptr noundef %5)
  ret i32 %6
}

; Function Attrs: nounwind uwtable
define ptr @Abc_NtkFromFraig(ptr noundef %0, ptr noundef %1) #0 {
  %3 = alloca ptr, align 8
  %4 = alloca ptr, align 8
  %5 = alloca ptr, align 8
  %6 = alloca ptr, align 8
  %7 = alloca ptr, align 8
  %8 = alloca ptr, align 8
  %9 = alloca i32, align 4
  store ptr %0, ptr %3, align 8
  store ptr %1, ptr %4, align 8
  %10 = load ptr, ptr %4, align 8
  %11 = call ptr @Abc_NtkStartFrom(ptr noundef %10, i32 noundef 3, i32 noundef 3)
  store ptr %11, ptr %6, align 8
  store i32 0, ptr %9, align 4
  br label %12

12:                                               ; preds = %30, %2
  %13 = load i32, ptr %9, align 4
  %14 = load ptr, ptr %4, align 8
  %15 = call i32 @Abc_NtkCiNum(ptr noundef %14)
  %16 = icmp slt i32 %13, %15
  br i1 %16, label %17, label %21

17:                                               ; preds = %12
  %18 = load ptr, ptr %4, align 8
  %19 = load i32, ptr %9, align 4
  %20 = call ptr @Abc_NtkCi(ptr noundef %18, i32 noundef %19)
  store ptr %20, ptr %7, align 8
  br label %21

21:                                               ; preds = %17, %12
  %22 = phi i1 [ false, %12 ], [ true, %17 ]
  br i1 %22, label %23, label %33

23:                                               ; preds = %21
  %24 = load ptr, ptr %3, align 8
  %25 = load i32, ptr %9, align 4
  %26 = call ptr @Fraig_ManReadIthVar(ptr noundef %24, i32 noundef %25)
  %27 = load ptr, ptr %7, align 8
  %28 = getelementptr inbounds %struct.Abc_Obj_t_, ptr %27, i32 0, i32 7
  %29 = load ptr, ptr %28, align 8
  call void @Fraig_NodeSetData1(ptr noundef %26, ptr noundef %29)
  br label %30

30:                                               ; preds = %23
  %31 = load i32, ptr %9, align 4
  %32 = add nsw i32 %31, 1
  store i32 %32, ptr %9, align 4
  br label %12, !llvm.loop !12

33:                                               ; preds = %21
  %34 = load ptr, ptr %3, align 8
  %35 = call ptr @Fraig_ManReadConst1(ptr noundef %34)
  %36 = load ptr, ptr %6, align 8
  %37 = call ptr @Abc_AigConst1(ptr noundef %36)
  call void @Fraig_NodeSetData1(ptr noundef %35, ptr noundef %37)
  %38 = load ptr, ptr @stdout, align 8
  %39 = load ptr, ptr %4, align 8
  %40 = call i32 @Abc_NtkCoNum(ptr noundef %39)
  %41 = call ptr @Extra_ProgressBarStart(ptr noundef %38, i32 noundef %40)
  store ptr %41, ptr %5, align 8
  store i32 0, ptr %9, align 4
  br label %42

42:                                               ; preds = %68, %33
  %43 = load i32, ptr %9, align 4
  %44 = load ptr, ptr %4, align 8
  %45 = call i32 @Abc_NtkCoNum(ptr noundef %44)
  %46 = icmp slt i32 %43, %45
  br i1 %46, label %47, label %51

47:                                               ; preds = %42
  %48 = load ptr, ptr %4, align 8
  %49 = load i32, ptr %9, align 4
  %50 = call ptr @Abc_NtkCo(ptr noundef %48, i32 noundef %49)
  store ptr %50, ptr %7, align 8
  br label %51

51:                                               ; preds = %47, %42
  %52 = phi i1 [ false, %42 ], [ true, %47 ]
  br i1 %52, label %53, label %71

53:                                               ; preds = %51
  %54 = load ptr, ptr %5, align 8
  %55 = load i32, ptr %9, align 4
  call void @Extra_ProgressBarUpdate(ptr noundef %54, i32 noundef %55, ptr noundef null)
  %56 = load ptr, ptr %6, align 8
  %57 = load ptr, ptr %3, align 8
  %58 = call ptr @Fraig_ManReadOutputs(ptr noundef %57)
  %59 = load i32, ptr %9, align 4
  %60 = sext i32 %59 to i64
  %61 = getelementptr inbounds ptr, ptr %58, i64 %60
  %62 = load ptr, ptr %61, align 8
  %63 = call ptr @Abc_NodeFromFraig_rec(ptr noundef %56, ptr noundef %62)
  store ptr %63, ptr %8, align 8
  %64 = load ptr, ptr %7, align 8
  %65 = getelementptr inbounds %struct.Abc_Obj_t_, ptr %64, i32 0, i32 7
  %66 = load ptr, ptr %65, align 8
  %67 = load ptr, ptr %8, align 8
  call void @Abc_ObjAddFanin(ptr noundef %66, ptr noundef %67)
  br label %68

68:                                               ; preds = %53
  %69 = load i32, ptr %9, align 4
  %70 = add nsw i32 %69, 1
  store i32 %70, ptr %9, align 4
  br label %42, !llvm.loop !13

71:                                               ; preds = %51
  %72 = load ptr, ptr %5, align 8
  call void @Extra_ProgressBarStop(ptr noundef %72)
  %73 = load ptr, ptr %6, align 8
  call void @Abc_NtkReassignIds(ptr noundef %73)
  %74 = load ptr, ptr %6, align 8
  ret ptr %74
}