; Function Attrs: nounwind uwtable
define ptr @Abc_NtkFromFraig(ptr noundef %0, ptr noundef %1) local_unnamed_addr #0 {
  %3 = tail call ptr @Abc_NtkStartFrom(ptr noundef %1, i32 noundef 3, i32 noundef 3) #11
  %4 = getelementptr i8, ptr %1, i64 56
  %.val32 = load ptr, ptr %4, align 8
  %5 = getelementptr i8, ptr %.val32, i64 4
  %.val.val33 = load i32, ptr %5, align 4
  %6 = icmp sgt i32 %.val.val33, 0
  br i1 %6, label %.lr.ph, label %.critedge

.lr.ph:                                           ; preds = %2, %.lr.ph
  %indvars.iv = phi i64 [ %indvars.iv.next, %.lr.ph ], [ 0, %2 ]
  %.val35 = phi ptr [ %.val, %.lr.ph ], [ %.val32, %2 ]
  %7 = getelementptr i8, ptr %.val35, i64 8
  %.val28.val = load ptr, ptr %7, align 8
  %8 = getelementptr inbounds nuw ptr, ptr %.val28.val, i64 %indvars.iv
  %9 = load ptr, ptr %8, align 8
  %10 = trunc nuw nsw i64 %indvars.iv to i32
  %11 = tail call ptr @Fraig_ManReadIthVar(ptr noundef %0, i32 noundef %10) #11
  %12 = getelementptr inbounds nuw i8, ptr %9, i64 64
  %13 = load ptr, ptr %12, align 8
  tail call void @Fraig_NodeSetData1(ptr noundef %11, ptr noundef %13) #11
  %indvars.iv.next = add nuw nsw i64 %indvars.iv, 1
  %.val = load ptr, ptr %4, align 8
  %14 = getelementptr i8, ptr %.val, i64 4
  %.val.val = load i32, ptr %14, align 4
  %15 = sext i32 %.val.val to i64
  %16 = icmp slt i64 %indvars.iv.next, %15
  br i1 %16, label %.lr.ph, label %.critedge, !llvm.loop !19

.critedge:                                        ; preds = %.lr.ph, %2
  %17 = tail call ptr @Fraig_ManReadConst1(ptr noundef %0) #11
  %18 = tail call ptr @Abc_AigConst1(ptr noundef %3) #11
  tail call void @Fraig_NodeSetData1(ptr noundef %17, ptr noundef %18) #11
  %19 = load ptr, ptr @stdout, align 8
  %20 = getelementptr i8, ptr %1, i64 64
  %.val29 = load ptr, ptr %20, align 8
  %21 = getelementptr i8, ptr %.val29, i64 4
  %.val29.val = load i32, ptr %21, align 4
  %22 = tail call ptr @Extra_ProgressBarStart(ptr noundef %19, i32 noundef %.val29.val) #11
  %.val3036 = load ptr, ptr %20, align 8
  %23 = getelementptr i8, ptr %.val3036, i64 4
  %.val30.val37 = load i32, ptr %23, align 4
  %24 = icmp sgt i32 %.val30.val37, 0
  br i1 %24, label %.lr.ph40, label %.critedge2

.lr.ph40:                                         ; preds = %.critedge
  %.not.i = icmp eq ptr %22, null
  br i1 %.not.i, label %Extra_ProgressBarUpdate.exit.us, label %.lr.ph40.split

Extra_ProgressBarUpdate.exit.us:                  ; preds = %.lr.ph40, %Extra_ProgressBarUpdate.exit.us
  %indvars.iv46 = phi i64 [ %indvars.iv.next47, %Extra_ProgressBarUpdate.exit.us ], [ 0, %.lr.ph40 ]
  %.val3039.us = phi ptr [ %.val30.us, %Extra_ProgressBarUpdate.exit.us ], [ %.val3036, %.lr.ph40 ]
  %25 = getelementptr i8, ptr %.val3039.us, i64 8
  %.val31.val.us = load ptr, ptr %25, align 8
  %26 = getelementptr inbounds nuw ptr, ptr %.val31.val.us, i64 %indvars.iv46
  %27 = load ptr, ptr %26, align 8
  %28 = trunc nuw nsw i64 %indvars.iv46 to i32
  tail call void @Extra_ProgressBarUpdate_int(ptr noundef null, i32 noundef %28, ptr noundef null) #11
  %29 = tail call ptr @Fraig_ManReadOutputs(ptr noundef %0) #11
  %30 = getelementptr inbounds nuw ptr, ptr %29, i64 %indvars.iv46
  %31 = load ptr, ptr %30, align 8
  %32 = tail call fastcc ptr @Abc_NodeFromFraig_rec(ptr noundef %3, ptr noundef %31)
  %33 = getelementptr inbounds nuw i8, ptr %27, i64 64
  %34 = load ptr, ptr %33, align 8
  tail call void @Abc_ObjAddFanin(ptr noundef %34, ptr noundef %32) #11
  %indvars.iv.next47 = add nuw nsw i64 %indvars.iv46, 1
  %.val30.us = load ptr, ptr %20, align 8
  %35 = getelementptr i8, ptr %.val30.us, i64 4
  %.val30.val.us = load i32, ptr %35, align 4
  %36 = sext i32 %.val30.val.us to i64
  %37 = icmp slt i64 %indvars.iv.next47, %36
  br i1 %37, label %Extra_ProgressBarUpdate.exit.us, label %.critedge2, !llvm.loop !20

.lr.ph40.split:                                   ; preds = %.lr.ph40, %Extra_ProgressBarUpdate.exit
  %indvars.iv43 = phi i64 [ %indvars.iv.next44, %Extra_ProgressBarUpdate.exit ], [ 0, %.lr.ph40 ]
  %.val3039 = phi ptr [ %.val30, %Extra_ProgressBarUpdate.exit ], [ %.val3036, %.lr.ph40 ]
  %38 = getelementptr i8, ptr %.val3039, i64 8
  %.val31.val = load ptr, ptr %38, align 8
  %39 = getelementptr inbounds nuw ptr, ptr %.val31.val, i64 %indvars.iv43
  %40 = load ptr, ptr %39, align 8
  %41 = load i32, ptr %22, align 4
  %42 = sext i32 %41 to i64
  %43 = icmp slt i64 %indvars.iv43, %42
  br i1 %43, label %Extra_ProgressBarUpdate.exit, label %44

44:                                               ; preds = %.lr.ph40.split
  %45 = trunc nuw nsw i64 %indvars.iv43 to i32
  tail call void @Extra_ProgressBarUpdate_int(ptr noundef nonnull %22, i32 noundef %45, ptr noundef null) #11
  br label %Extra_ProgressBarUpdate.exit

Extra_ProgressBarUpdate.exit:                     ; preds = %.lr.ph40.split, %44
  %46 = tail call ptr @Fraig_ManReadOutputs(ptr noundef %0) #11
  %47 = getelementptr inbounds nuw ptr, ptr %46, i64 %indvars.iv43
  %48 = load ptr, ptr %47, align 8
  %49 = tail call fastcc ptr @Abc_NodeFromFraig_rec(ptr noundef %3, ptr noundef %48)
  %50 = getelementptr inbounds nuw i8, ptr %40, i64 64
  %51 = load ptr, ptr %50, align 8
  tail call void @Abc_ObjAddFanin(ptr noundef %51, ptr noundef %49) #11
  %indvars.iv.next44 = add nuw nsw i64 %indvars.iv43, 1
  %.val30 = load ptr, ptr %20, align 8
  %52 = getelementptr i8, ptr %.val30, i64 4
  %.val30.val = load i32, ptr %52, align 4
  %53 = sext i32 %.val30.val to i64
  %54 = icmp slt i64 %indvars.iv.next44, %53
  br i1 %54, label %.lr.ph40.split, label %.critedge2, !llvm.loop !20

.critedge2:                                       ; preds = %Extra_ProgressBarUpdate.exit, %Extra_ProgressBarUpdate.exit.us, %.critedge
  tail call void @Extra_ProgressBarStop(ptr noundef %22) #11
  tail call void @Abc_NtkReassignIds(ptr noundef %3) #11
  ret ptr %3
}